target datalayout = "e-m:e-p270:32:32-p271:32:32-p272:64:64-i64:64-i128:128-f80:128-n8:16:32:64-S128"
target triple = "x86_64-pc-linux-gnu"

%struct.global_State = type { ptr, ptr, %struct.GCState, %struct.GCstr, i8, i8, i8, i8, %struct.StrInternState, i32, %struct.GCRef, %struct.SBuf, %union.TValue, %union.TValue, %struct.Node, %union.TValue, %struct.GCupval, i32, i32, ptr, ptr, ptr, i32, i32, %struct.GCRef, %struct.MRef, %struct.MRef, %struct.PRNGState, [39 x %struct.GCRef] }
%struct.GCState = type { i64, i64, i8, i8, i8, i8, i32, %struct.GCRef, %struct.MRef, %struct.GCRef, %struct.GCRef, %struct.GCRef, %struct.GCRef, i64, i64, i32, i32, %struct.MRef }
%struct.GCstr = type { %struct.GCRef, i8, i8, i8, i8, i32, i32, i32 }
%struct.StrInternState = type { ptr, i32, i32, i32, i8, i8, i8, i8, i64 }
%struct.SBuf = type { ptr, ptr, ptr, %struct.MRef }
%struct.Node = type { %union.TValue, %union.TValue, %struct.MRef }
%union.TValue = type { i64 }
%struct.GCupval = type { %struct.GCRef, i8, i8, i8, i8, %union.anon, %struct.MRef, i32 }
%union.anon = type { %struct.anon.1 }
%struct.anon.1 = type { %struct.GCRef, %struct.GCRef }
%struct.GCRef = type { i64 }
%struct.MRef = type { i64 }
%struct.PRNGState = type { [4 x i64] }
%struct.lua_State = type { %struct.GCRef, i8, i8, i8, i8, %struct.MRef, %struct.GCRef, ptr, ptr, %struct.MRef, %struct.MRef, %struct.GCRef, %struct.GCRef, ptr, i32 }
%struct.GChead = type { %struct.GCRef, i8, i8, i8, i8, %struct.GCRef, %struct.GCRef, %struct.GCRef }
%struct.GG_State = type { %struct.lua_State, %struct.global_State, %struct.jit_State, [64 x i16], [243 x ptr], [57 x i32] }
%struct.jit_State = type { %struct.GCtrace, ptr, ptr, ptr, ptr, ptr, ptr, i32, i32, i32, i8, i8, %struct.IRType1, i8, %struct.FoldState, ptr, i32, i32, i32, i32, i32, i32, i32, [1 x i32], [5 x %union.TValue], [3 x %union.TValue], ptr, i32, i32, i32, i32, ptr, ptr, i32, i32, i8, ptr, i32, i32, i16, [101 x i16], [258 x i32], [15 x i32], [16 x ptr], [64 x %struct.HotPenalty], i32, [16 x %struct.BPropEntry], i32, %struct.ScEvEntry, ptr, i32, i32, i32, ptr, i32, i32, ptr, ptr, ptr, i64, i64, %union.TValue, ptr, i32, i32 }
%struct.GCtrace = type { %struct.GCRef, i8, i8, i16, i32, i32, %struct.GCRef, ptr, i32, i32, ptr, ptr, %struct.GCRef, %struct.MRef, i32, i32, ptr, i32, i16, i16, i16, i16, i16, i16, i16, i8, i8, i8, i8 }
%struct.IRType1 = type { i8 }
%struct.FoldState = type { %union.IRIns, [2 x %union.IRIns], [2 x %union.IRIns] }
%union.IRIns = type { %struct.GCRef }
%struct.HotPenalty = type { %struct.MRef, i16, i16 }
%struct.BPropEntry = type { i16, i16, i32 }
%struct.ScEvEntry = type { %struct.MRef, i16, i16, i16, i16, %struct.IRType1, i8 }

; Function Attrs: nounwind uwtable
define internal void @gc_marktrace(ptr noundef %0, i32 noundef %1) #0 {
  %3 = alloca ptr, align 8
  %4 = alloca i32, align 4
  %5 = alloca ptr, align 8
  store ptr %0, ptr %3, align 8, !tbaa !4
  store i32 %1, ptr %4, align 4, !tbaa !9
  call void @llvm.lifetime.start.p0(i64 8, ptr %5) #7
  %6 = load ptr, ptr %3, align 8, !tbaa !4
  %7 = getelementptr inbounds i8, ptr %6, i64 -96
  %8 = getelementptr inbounds nuw %struct.GG_State, ptr %7, i32 0, i32 2
  %9 = getelementptr inbounds nuw %struct.jit_State, ptr %8, i32 0, i32 36
  %10 = load ptr, ptr %9, align 8, !tbaa !112
  %11 = load i32, ptr %4, align 4, !tbaa !9
  %12 = zext i32 %11 to i64
  %13 = getelementptr inbounds nuw %struct.GCRef, ptr %10, i64 %12
  %14 = getelementptr inbounds nuw %struct.GCRef, ptr %13, i32 0, i32 0
  %15 = load i64, ptr %14, align 8, !tbaa !27
  %16 = inttoptr i64 %15 to ptr
  store ptr %16, ptr %5, align 8, !tbaa !28
  %17 = load ptr, ptr %5, align 8, !tbaa !28
  %18 = getelementptr inbounds nuw %struct.GChead, ptr %17, i32 0, i32 1
  %19 = load i8, ptr %18, align 8, !tbaa !30
  %20 = zext i8 %19 to i32
  %21 = and i32 %20, 3
  %22 = icmp ne i32 %21, 0
  br i1 %22, label %23, label %44

23:                                               ; preds = %2
  %24 = load ptr, ptr %5, align 8, !tbaa !28
  %25 = getelementptr inbounds nuw %struct.GChead, ptr %24, i32 0, i32 1
  %26 = load i8, ptr %25, align 8, !tbaa !30
  %27 = zext i8 %26 to i32
  %28 = and i32 %27, 252
  %29 = trunc i32 %28 to i8
  store i8 %29, ptr %25, align 8, !tbaa !30
  %30 = load ptr, ptr %3, align 8, !tbaa !4
  %31 = getelementptr inbounds nuw %struct.global_State, ptr %30, i32 0, i32 2
  %32 = getelementptr inbounds nuw %struct.GCState, ptr %31, i32 0, i32 9
  %33 = getelementptr inbounds nuw %struct.GCRef, ptr %32, i32 0, i32 0
  %34 = load i64, ptr %33, align 8, !tbaa !88
  %35 = load ptr, ptr %5, align 8, !tbaa !28
  %36 = getelementptr inbounds nuw %struct.GChead, ptr %35, i32 0, i32 6
  %37 = getelementptr inbounds nuw %struct.GCRef, ptr %36, i32 0, i32 0
  store i64 %34, ptr %37, align 8, !tbaa !30
  %38 = load ptr, ptr %5, align 8, !tbaa !28
  %39 = ptrtoint ptr %38 to i64
  %40 = load ptr, ptr %3, align 8, !tbaa !4
  %41 = getelementptr inbounds nuw %struct.global_State, ptr %40, i32 0, i32 2
  %42 = getelementptr inbounds nuw %struct.GCState, ptr %41, i32 0, i32 9
  %43 = getelementptr inbounds nuw %struct.GCRef, ptr %42, i32 0, i32 0
  store i64 %39, ptr %43, align 8, !tbaa !88
  br label %44

44:                                               ; preds = %23, %2
  call void @llvm.lifetime.end.p0(i64 8, ptr %5) #7
  ret void
}

; Function Attrs: nounwind uwtable
define hidden void @lj_gc_barriertrace(ptr noundef %0, i32 noundef %1) #0 {
  %3 = alloca ptr, align 8
  %4 = alloca i32, align 4
  store ptr %0, ptr %3, align 8, !tbaa !4
  store i32 %1, ptr %4, align 4, !tbaa !9
  %5 = load ptr, ptr %3, align 8, !tbaa !4
  %6 = getelementptr inbounds nuw %struct.global_State, ptr %5, i32 0, i32 2
  %7 = getelementptr inbounds nuw %struct.GCState, ptr %6, i32 0, i32 3
  %8 = load i8, ptr %7, align 1, !tbaa !84
  %9 = zext i8 %8 to i32
  %10 = icmp eq i32 %9, 1
  br i1 %10, label %18, label %11

11:                                               ; preds = %2
  %12 = load ptr, ptr %3, align 8, !tbaa !4
  %13 = getelementptr inbounds nuw %struct.global_State, ptr %12, i32 0, i32 2
  %14 = getelementptr inbounds nuw %struct.GCState, ptr %13, i32 0, i32 3
  %15 = load i8, ptr %14, align 1, !tbaa !84
  %16 = zext i8 %15 to i32
  %17 = icmp eq i32 %16, 2
  br i1 %17, label %18, label %21

18:                                               ; preds = %11, %2
  %19 = load ptr, ptr %3, align 8, !tbaa !4
  %20 = load i32, ptr %4, align 4, !tbaa !9
  call void @gc_marktrace(ptr noundef %19, i32 noundef %20)
  br label %21

21:                                               ; preds = %18, %11
  ret void
}