; Function Attrs: mustprogress nofree norecurse nosync nounwind willreturn memory(readwrite, inaccessiblemem: none) uwtable
define hidden void @lj_gc_barriertrace(ptr noundef captures(none) %0, i32 noundef %1) local_unnamed_addr #4 {
  %3 = getelementptr inbounds nuw i8, ptr %0, i64 33
  %4 = load i8, ptr %3, align 1, !tbaa !70
  %.off = add i8 %4, -1
  %switch = icmp ult i8 %.off, 2
  br i1 %switch, label %5, label %gc_marktrace.exit

5:                                                ; preds = %2
  %6 = getelementptr inbounds nuw i8, ptr %0, i64 1120
  %7 = load ptr, ptr %6, align 8, !tbaa !107
  %8 = zext i32 %1 to i64
  %9 = getelementptr inbounds nuw %struct.GCRef, ptr %7, i64 %8
  %10 = load i64, ptr %9, align 8, !tbaa !22
  %11 = inttoptr i64 %10 to ptr
  %12 = getelementptr inbounds nuw i8, ptr %11, i64 8
  %13 = load i8, ptr %12, align 8, !tbaa !23
  %14 = and i8 %13, 3
  %.not.i = icmp eq i8 %14, 0
  br i1 %.not.i, label %gc_marktrace.exit, label %15

15:                                               ; preds = %5
  %16 = and i8 %13, -4
  store i8 %16, ptr %12, align 8, !tbaa !23
  %17 = getelementptr inbounds nuw i8, ptr %0, i64 56
  %18 = load i64, ptr %17, align 8, !tbaa !75
  %19 = getelementptr inbounds nuw i8, ptr %11, i64 24
  store i64 %18, ptr %19, align 8, !tbaa !23
  store i64 %10, ptr %17, align 8, !tbaa !75
  br label %gc_marktrace.exit

gc_marktrace.exit:                                ; preds = %15, %5, %2
  ret void
}